Certificate:
    Data:
        Version: 3 (0x2)
        Serial Number:
            1a:03:02:98:46:23:8d:fa:0d:73:7d:af:0c:e0:f1:6b
    Signature Algorithm: sha256WithRSAEncryption
        Issuer: CN=ChangeMe
        Validity
            Not Before: May  6 08:00:40 2019 GMT
            Not After : May  3 08:00:40 2029 GMT
        Subject: CN=client1
        Subject Public Key Info:
            Public Key Algorithm: rsaEncryption
                Public-Key: (2048 bit)
                Modulus:
                    00:b2:60:0f:2b:05:ca:bc:53:69:33:3d:d3:77:d7:
                    3e:1a:15:15:c0:ff:67:2e:2e:23:79:00:26:98:18:
                    27:cd:72:ff:0f:a6:e4:61:f1:9a:ea:9b:a3:8b:0f:
                    96:c9:92:c2:cb:46:40:86:86:9f:23:f4:d5:8b:b3:
                    be:09:05:74:fa:5b:98:9d:9d:60:ac:d7:1d:de:05:
                    4b:2d:ed:d4:02:37:c5:3c:b7:05:42:78:57:28:9e:
                    e4:fa:a7:a3:73:05:0c:26:a9:e3:9a:65:22:27:b1:
                    b8:45:eb:5a:25:05:df:8d:ed:77:35:bb:29:46:21:
                    71:b0:9b:54:9a:bb:17:88:3e:7e:fd:a1:d2:f5:d6:
                    91:35:31:2b:51:6d:c1:cf:71:c3:bc:71:24:84:f0:
                    7c:3b:06:fd:d8:d0:b1:76:78:e2:99:4d:3d:59:6c:
                    3f:6c:5e:59:16:21:fe:87:c5:a6:c6:53:40:26:8f:
                    d4:47:b5:60:09:84:88:98:66:af:d0:fb:38:7d:e6:
                    e9:d0:7e:b4:6a:ef:8d:95:43:22:7f:d2:bb:bb:50:
                    90:0c:ab:72:7c:e5:63:d1:4b:75:b1:d0:20:60:ef:
                    69:e8:c0:63:85:70:f1:ae:1a:1d:0f:b3:79:e9:fb:
                    8c:b1:05:f7:4b:eb:8c:96:87:33:6d:51:4d:ba:15:
                    11:91
                Exponent: 65537 (0x10001)
        X509v3 extensions:
            X509v3 Basic Constraints: 
                CA:FALSE
            X509v3 Subject Key Identifier: 
                9F:3B:79:49:10:1E:35:2C:68:E9:4A:C8:9D:D4:2F:62:B0:BF:06:A6
            X509v3 Authority Key Identifier: 
                keyid:29:0D:37:38:C1:2C:B6:3A:70:E9:7F:05:1F:0F:47:A5:7F:0C:CC:9E
                DirName:/CN=ChangeMe
                serial:84:E2:D8:08:D2:90:27:34

            X509v3 Extended Key Usage: 
                TLS Web Client Authentication
            X509v3 Key Usage: 
                Digital Signature
    Signature Algorithm: sha256WithRSAEncryption
         e0:8c:de:9d:87:c7:4d:4e:9b:dd:c2:aa:60:16:bc:8a:9c:4d:
         1f:58:5a:42:bd:67:47:f2:41:8a:43:91:24:c5:c8:4b:53:d1:
         07:e4:6b:e9:93:b2:5e:28:89:90:3f:9d:5b:59:b4:85:2f:0f:
         b9:2e:63:68:10:5e:f6:fe:4b:38:65:e3:1a:b4:11:77:27:e1:
         d4:6e:24:fa:92:db:b2:92:b1:47:ab:9a:a4:63:7b:3a:9d:e4:
         af:53:85:b4:01:50:1c:fd:7a:2e:c5:9c:02:a3:94:b7:0a:14:
         c7:a7:37:49:2c:2f:c6:f2:f1:05:c2:53:66:6e:c3:03:0d:69:
         d5:34:50:65:81:44:8d:ed:f8:7b:a1:20:b5:85:60:79:cb:87:
         11:1e:15:23:6e:91:32:f1:95:97:cd:35:98:7a:a4:b4:35:52:
         2b:c9:3d:44:c8:5d:72:58:61:ca:e7:f3:91:d6:a1:11:42:95:
         55:d4:5f:bd:8d:83:37:c7:a4:94:d8:d5:38:69:86:7b:fc:df:
         51:ea:35:c2:14:ad:86:c1:ad:a1:8c:9b:6a:4b:27:36:87:43:
         f3:6d:8b:06:53:76:02:b9:92:7e:d3:6e:e3:4f:0f:45:02:ea:
         d8:47:7d:1b:3a:a1:57:03:a4:de:3f:9e:5c:4e:0f:1b:72:74:
         10:81:c6:7b
-----BEGIN CERTIFICATE-----
MIIDRDCCAiygAwIBAgIQGgMCmEYjjfoNc32vDODxazANBgkqhkiG9w0BAQsFADAT
MREwDwYDVQQDDAhDaGFuZ2VNZTAeFw0xOTA1MDYwODAwNDBaFw0yOTA1MDMwODAw
NDBaMBIxEDAOBgNVBAMMB2NsaWVudDEwggEiMA0GCSqGSIb3DQEBAQUAA4IBDwAw
ggEKAoIBAQCyYA8rBcq8U2kzPdN31z4aFRXA/2cuLiN5ACaYGCfNcv8PpuRh8Zrq
m6OLD5bJksLLRkCGhp8j9NWLs74JBXT6W5idnWCs1x3eBUst7dQCN8U8twVCeFco
nuT6p6NzBQwmqeOaZSInsbhF61olBd+N7Xc1uylGIXGwm1SauxeIPn79odL11pE1
MStRbcHPccO8cSSE8Hw7Bv3Y0LF2eOKZTT1ZbD9sXlkWIf6HxabGU0Amj9RHtWAJ
hIiYZq/Q+zh95unQfrRq742VQyJ/0ru7UJAMq3J85WPRS3Wx0CBg72nowGOFcPGu
Gh0Ps3np+4yxBfdL64yWhzNtUU26FRGRAgMBAAGjgZQwgZEwCQYDVR0TBAIwADAd
BgNVHQ4EFgQUnzt5SRAeNSxo6UrIndQvYrC/BqYwQwYDVR0jBDwwOoAUKQ03OMEs
tjpw6X8FHw9HpX8MzJ6hF6QVMBMxETAPBgNVBAMMCENoYW5nZU1lggkAhOLYCNKQ
JzQwEwYDVR0lBAwwCgYIKwYBBQUHAwIwCwYDVR0PBAQDAgeAMA0GCSqGSIb3DQEB
CwUAA4IBAQDgjN6dh8dNTpvdwqpgFryKnE0fWFpCvWdH8kGKQ5EkxchLU9EH5Gvp
k7JeKImQP51bWbSFLw+5LmNoEF72/ks4ZeMatBF3J+HUbiT6ktuykrFHq5qkY3s6
neSvU4W0AVAc/XouxZwCo5S3ChTHpzdJLC/G8vEFwlNmbsMDDWnVNFBlgUSN7fh7
oSC1hWB5y4cRHhUjbpEy8ZWXzTWYeqS0NVIryT1EyF1yWGHK5/OR1qERQpVV1F+9
jYM3x6SU2NU4aYZ7/N9R6jXCFK2Gwa2hjJtqSyc2h0PzbYsGU3YCuZJ+027jTw9F
AurYR30bOqFXA6TeP55cTg8bcnQQgcZ7
-----END CERTIFICATE-----
